; Function Attrs: nounwind uwtable
define void @Abc_NtkDelayTraceCritPathCollect_rec(ptr noundef readnone captures(none) %0, ptr noundef %1, ptr noundef readonly captures(none) %2, ptr noundef captures(none) %3) local_unnamed_addr #3 {
  %5 = getelementptr i8, ptr %1, i64 20
  %.val9 = load i32, ptr %5, align 4
  %6 = and i32 %.val9, 15
  %.not = icmp eq i32 %6, 7
  br i1 %.not, label %7, label %22

7:                                                ; preds = %4
  %8 = getelementptr i8, ptr %1, i64 16
  %.val = load i32, ptr %8, align 8
  %9 = getelementptr i8, ptr %2, i64 8
  %.val10 = load ptr, ptr %9, align 8
  %10 = sext i32 %.val to i64
  %11 = getelementptr inbounds i32, ptr %.val10, i64 %10
  %12 = load i32, ptr %11, align 4
  %.val11 = load ptr, ptr %1, align 8
  %13 = getelementptr i8, ptr %1, i64 32
  %.val12 = load ptr, ptr %13, align 8
  %14 = getelementptr i8, ptr %.val11, i64 32
  %.val11.val = load ptr, ptr %14, align 8
  %15 = getelementptr i8, ptr %.val11.val, i64 8
  %.val11.val.val = load ptr, ptr %15, align 8
  %16 = sext i32 %12 to i64
  %17 = getelementptr inbounds i32, ptr %.val12, i64 %16
  %18 = load i32, ptr %17, align 4
  %19 = sext i32 %18 to i64
  %20 = getelementptr inbounds ptr, ptr %.val11.val.val, i64 %19
  %21 = load ptr, ptr %20, align 8
  tail call void @Abc_NtkDelayTraceCritPathCollect_rec(ptr noundef %0, ptr noundef %21, ptr noundef %2, ptr noundef %3)
  br label %22

22:                                               ; preds = %7, %4
  %23 = getelementptr inbounds nuw i8, ptr %3, i64 4
  %24 = load i32, ptr %23, align 4
  %25 = load i32, ptr %3, align 8
  %26 = icmp eq i32 %24, %25
  br i1 %26, label %27, label %.Vec_PtrGrow.exit11_crit_edge.i

.Vec_PtrGrow.exit11_crit_edge.i:                  ; preds = %22
  %.phi.trans.insert.i = getelementptr inbounds nuw i8, ptr %3, i64 8
  %.pre.i = load ptr, ptr %.phi.trans.insert.i, align 8
  br label %Vec_PtrPush.exit

27:                                               ; preds = %22
  %28 = icmp slt i32 %24, 16
  br i1 %28, label %29, label %37

29:                                               ; preds = %27
  %30 = getelementptr inbounds nuw i8, ptr %3, i64 8
  %31 = load ptr, ptr %30, align 8
  %.not9.i.i = icmp eq ptr %31, null
  br i1 %.not9.i.i, label %34, label %32

32:                                               ; preds = %29
  %33 = tail call dereferenceable_or_null(128) ptr @realloc(ptr noundef nonnull %31, i64 noundef 128) #19
  br label %Vec_PtrGrow.exit.i

34:                                               ; preds = %29
  %35 = tail call noalias dereferenceable_or_null(128) ptr @malloc(i64 noundef 128) #20
  br label %Vec_PtrGrow.exit.i

Vec_PtrGrow.exit.i:                               ; preds = %34, %32
  %36 = phi ptr [ %33, %32 ], [ %35, %34 ]
  store ptr %36, ptr %30, align 8
  store i32 16, ptr %3, align 8
  br label %Vec_PtrPush.exit

37:                                               ; preds = %27
  %38 = shl nuw nsw i32 %24, 1
  %39 = getelementptr inbounds nuw i8, ptr %3, i64 8
  %40 = load ptr, ptr %39, align 8
  %.not9.i10.i = icmp eq ptr %40, null
  %41 = zext nneg i32 %38 to i64
  %42 = shl nuw nsw i64 %41, 3
  br i1 %.not9.i10.i, label %45, label %43

43:                                               ; preds = %37
  %44 = tail call ptr @realloc(ptr noundef nonnull %40, i64 noundef %42) #19
  br label %47

45:                                               ; preds = %37
  %46 = tail call noalias ptr @malloc(i64 noundef %42) #20
  br label %47

47:                                               ; preds = %45, %43
  %48 = phi ptr [ %44, %43 ], [ %46, %45 ]
  store ptr %48, ptr %39, align 8
  store i32 %38, ptr %3, align 8
  br label %Vec_PtrPush.exit

Vec_PtrPush.exit:                                 ; preds = %.Vec_PtrGrow.exit11_crit_edge.i, %Vec_PtrGrow.exit.i, %47
  %49 = phi ptr [ %.pre.i, %.Vec_PtrGrow.exit11_crit_edge.i ], [ %48, %47 ], [ %36, %Vec_PtrGrow.exit.i ]
  %50 = load i32, ptr %23, align 4
  %51 = add nsw i32 %50, 1
  store i32 %51, ptr %23, align 4
  %52 = sext i32 %50 to i64
  %53 = getelementptr inbounds ptr, ptr %49, i64 %52
  store ptr %1, ptr %53, align 8
  ret void
}